target datalayout = "e-m:e-p270:32:32-p271:32:32-p272:64:64-i64:64-i128:128-f80:128-n8:16:32:64-S128"
target triple = "x86_64-pc-linux-gnu"

%struct.Llb_Mgr_t_ = type { ptr, ptr, i32, ptr, ptr, i32, i32, i32, ptr }
%struct.Vec_Int_t_ = type { i32, i32, ptr }
%struct.Llb_Prt_t_ = type { i32, i32, ptr, ptr }

; Function Attrs: inlinehint nounwind uwtable
define internal i32 @Abc_MaxInt(i32 noundef %0, i32 noundef %1) #1 {
  %3 = alloca i32, align 4
  %4 = alloca i32, align 4
  store i32 %0, ptr %3, align 4, !tbaa !50
  store i32 %1, ptr %4, align 4, !tbaa !50
  %5 = load i32, ptr %3, align 4, !tbaa !50
  %6 = load i32, ptr %4, align 4, !tbaa !50
  %7 = icmp sgt i32 %5, %6
  br i1 %7, label %8, label %10

8:                                                ; preds = %2
  %9 = load i32, ptr %3, align 4, !tbaa !50
  br label %12

10:                                               ; preds = %2
  %11 = load i32, ptr %4, align 4, !tbaa !50
  br label %12

12:                                               ; preds = %10, %8
  %13 = phi i32 [ %9, %8 ], [ %11, %10 ]
  ret i32 %13
}

; Function Attrs: inlinehint nounwind uwtable
define internal i32 @Vec_IntEntry(ptr noundef %0, i32 noundef %1) #1 {
  %3 = alloca ptr, align 8
  %4 = alloca i32, align 4
  store ptr %0, ptr %3, align 8, !tbaa !21
  store i32 %1, ptr %4, align 4, !tbaa !50
  %5 = load ptr, ptr %3, align 8, !tbaa !21
  %6 = getelementptr inbounds nuw %struct.Vec_Int_t_, ptr %5, i32 0, i32 2
  %7 = load ptr, ptr %6, align 8, !tbaa !22
  %8 = load i32, ptr %4, align 4, !tbaa !50
  %9 = sext i32 %8 to i64
  %10 = getelementptr inbounds i32, ptr %7, i64 %9
  %11 = load i32, ptr %10, align 4, !tbaa !50
  ret i32 %11
}

; Function Attrs: inlinehint nounwind uwtable
define internal ptr @Vec_IntAlloc(i32 noundef %0) #1 {
  %2 = alloca i32, align 4
  %3 = alloca ptr, align 8
  store i32 %0, ptr %2, align 4, !tbaa !50
  call void @llvm.lifetime.start.p0(i64 8, ptr %3) #8
  %4 = call noalias ptr @malloc(i64 noundef 16) #9
  store ptr %4, ptr %3, align 8, !tbaa !21
  %5 = load i32, ptr %2, align 4, !tbaa !50
  %6 = icmp sgt i32 %5, 0
  br i1 %6, label %7, label %11

7:                                                ; preds = %1
  %8 = load i32, ptr %2, align 4, !tbaa !50
  %9 = icmp slt i32 %8, 16
  br i1 %9, label %10, label %11

10:                                               ; preds = %7
  store i32 16, ptr %2, align 4, !tbaa !50
  br label %11

11:                                               ; preds = %10, %7, %1
  %12 = load ptr, ptr %3, align 8, !tbaa !21
  %13 = getelementptr inbounds nuw %struct.Vec_Int_t_, ptr %12, i32 0, i32 1
  store i32 0, ptr %13, align 4, !tbaa !53
  %14 = load i32, ptr %2, align 4, !tbaa !50
  %15 = load ptr, ptr %3, align 8, !tbaa !21
  %16 = getelementptr inbounds nuw %struct.Vec_Int_t_, ptr %15, i32 0, i32 0
  store i32 %14, ptr %16, align 8, !tbaa !79
  %17 = load ptr, ptr %3, align 8, !tbaa !21
  %18 = getelementptr inbounds nuw %struct.Vec_Int_t_, ptr %17, i32 0, i32 0
  %19 = load i32, ptr %18, align 8, !tbaa !79
  %20 = icmp ne i32 %19, 0
  br i1 %20, label %21, label %28

21:                                               ; preds = %11
  %22 = load ptr, ptr %3, align 8, !tbaa !21
  %23 = getelementptr inbounds nuw %struct.Vec_Int_t_, ptr %22, i32 0, i32 0
  %24 = load i32, ptr %23, align 8, !tbaa !79
  %25 = sext i32 %24 to i64
  %26 = mul i64 4, %25
  %27 = call noalias ptr @malloc(i64 noundef %26) #9
  br label %29

28:                                               ; preds = %11
  br label %29

29:                                               ; preds = %28, %21
  %30 = phi ptr [ %27, %21 ], [ null, %28 ]
  %31 = load ptr, ptr %3, align 8, !tbaa !21
  %32 = getelementptr inbounds nuw %struct.Vec_Int_t_, ptr %31, i32 0, i32 2
  store ptr %30, ptr %32, align 8, !tbaa !22
  %33 = load ptr, ptr %3, align 8, !tbaa !21
  call void @llvm.lifetime.end.p0(i64 8, ptr %3) #8
  ret ptr %33
}

; Function Attrs: nounwind uwtable
define void @Llb_Nonlin4AddPartition(ptr noundef %0, i32 noundef %1, ptr noundef %2) #0 {
  %4 = alloca ptr, align 8
  %5 = alloca i32, align 4
  %6 = alloca ptr, align 8
  %7 = alloca i32, align 4
  %8 = alloca i32, align 4
  store ptr %0, ptr %4, align 8, !tbaa !3
  store i32 %1, ptr %5, align 4, !tbaa !50
  store ptr %2, ptr %6, align 8, !tbaa !49
  call void @llvm.lifetime.start.p0(i64 4, ptr %7) #8
  call void @llvm.lifetime.start.p0(i64 4, ptr %8) #8
  %9 = call noalias ptr @calloc(i64 noundef 1, i64 noundef 24) #10
  %10 = load ptr, ptr %4, align 8, !tbaa !3
  %11 = getelementptr inbounds nuw %struct.Llb_Mgr_t_, ptr %10, i32 0, i32 3
  %12 = load ptr, ptr %11, align 8, !tbaa !26
  %13 = load i32, ptr %5, align 4, !tbaa !50
  %14 = sext i32 %13 to i64
  %15 = getelementptr inbounds ptr, ptr %12, i64 %14
  store ptr %9, ptr %15, align 8, !tbaa !24
  %16 = load i32, ptr %5, align 4, !tbaa !50
  %17 = load ptr, ptr %4, align 8, !tbaa !3
  %18 = getelementptr inbounds nuw %struct.Llb_Mgr_t_, ptr %17, i32 0, i32 3
  %19 = load ptr, ptr %18, align 8, !tbaa !26
  %20 = load i32, ptr %5, align 4, !tbaa !50
  %21 = sext i32 %20 to i64
  %22 = getelementptr inbounds ptr, ptr %19, i64 %21
  %23 = load ptr, ptr %22, align 8, !tbaa !24
  %24 = getelementptr inbounds nuw %struct.Llb_Prt_t_, ptr %23, i32 0, i32 0
  store i32 %16, ptr %24, align 8, !tbaa !27
  %25 = load ptr, ptr %6, align 8, !tbaa !49
  %26 = load ptr, ptr %4, align 8, !tbaa !3
  %27 = getelementptr inbounds nuw %struct.Llb_Mgr_t_, ptr %26, i32 0, i32 3
  %28 = load ptr, ptr %27, align 8, !tbaa !26
  %29 = load i32, ptr %5, align 4, !tbaa !50
  %30 = sext i32 %29 to i64
  %31 = getelementptr inbounds ptr, ptr %28, i64 %30
  %32 = load ptr, ptr %31, align 8, !tbaa !24
  %33 = getelementptr inbounds nuw %struct.Llb_Prt_t_, ptr %32, i32 0, i32 2
  store ptr %25, ptr %33, align 8, !tbaa !32
  %34 = load ptr, ptr %6, align 8, !tbaa !49
  call void @Cudd_Ref(ptr noundef %34)
  %35 = call ptr @Vec_IntAlloc(i32 noundef 8)
  %36 = load ptr, ptr %4, align 8, !tbaa !3
  %37 = getelementptr inbounds nuw %struct.Llb_Mgr_t_, ptr %36, i32 0, i32 3
  %38 = load ptr, ptr %37, align 8, !tbaa !26
  %39 = load i32, ptr %5, align 4, !tbaa !50
  %40 = sext i32 %39 to i64
  %41 = getelementptr inbounds ptr, ptr %38, i64 %40
  %42 = load ptr, ptr %41, align 8, !tbaa !24
  %43 = getelementptr inbounds nuw %struct.Llb_Prt_t_, ptr %42, i32 0, i32 3
  store ptr %35, ptr %43, align 8, !tbaa !30
  store i32 0, ptr %8, align 4, !tbaa !50
  %44 = load ptr, ptr %4, align 8, !tbaa !3
  %45 = getelementptr inbounds nuw %struct.Llb_Mgr_t_, ptr %44, i32 0, i32 0
  %46 = load ptr, ptr %45, align 8, !tbaa !31
  %47 = load ptr, ptr %6, align 8, !tbaa !49
  %48 = load ptr, ptr %4, align 8, !tbaa !3
  %49 = getelementptr inbounds nuw %struct.Llb_Mgr_t_, ptr %48, i32 0, i32 8
  %50 = load ptr, ptr %49, align 8, !tbaa !64
  %51 = call ptr @Extra_SupportArray(ptr noundef %46, ptr noundef %47, ptr noundef %50)
  store i32 0, ptr %7, align 4, !tbaa !50
  br label %52

52:                                               ; preds = %88, %3
  %53 = load i32, ptr %7, align 4, !tbaa !50
  %54 = load ptr, ptr %4, align 8, !tbaa !3
  %55 = getelementptr inbounds nuw %struct.Llb_Mgr_t_, ptr %54, i32 0, i32 6
  %56 = load i32, ptr %55, align 4, !tbaa !56
  %57 = icmp slt i32 %53, %56
  br i1 %57, label %58, label %91

58:                                               ; preds = %52
  %59 = load ptr, ptr %4, align 8, !tbaa !3
  %60 = getelementptr inbounds nuw %struct.Llb_Mgr_t_, ptr %59, i32 0, i32 8
  %61 = load ptr, ptr %60, align 8, !tbaa !64
  %62 = load i32, ptr %7, align 4, !tbaa !50
  %63 = sext i32 %62 to i64
  %64 = getelementptr inbounds i32, ptr %61, i64 %63
  %65 = load i32, ptr %64, align 4, !tbaa !50
  %66 = load i32, ptr %8, align 4, !tbaa !50
  %67 = add nsw i32 %66, %65
  store i32 %67, ptr %8, align 4, !tbaa !50
  %68 = load ptr, ptr %4, align 8, !tbaa !3
  %69 = getelementptr inbounds nuw %struct.Llb_Mgr_t_, ptr %68, i32 0, i32 8
  %70 = load ptr, ptr %69, align 8, !tbaa !64
  %71 = load i32, ptr %7, align 4, !tbaa !50
  %72 = sext i32 %71 to i64
  %73 = getelementptr inbounds i32, ptr %70, i64 %72
  %74 = load i32, ptr %73, align 4, !tbaa !50
  %75 = icmp ne i32 %74, 0
  br i1 %75, label %76, label %87

76:                                               ; preds = %58
  %77 = load ptr, ptr %4, align 8, !tbaa !3
  %78 = getelementptr inbounds nuw %struct.Llb_Mgr_t_, ptr %77, i32 0, i32 1
  %79 = load ptr, ptr %78, align 8, !tbaa !68
  %80 = load i32, ptr %7, align 4, !tbaa !50
  %81 = call i32 @Vec_IntEntry(ptr noundef %79, i32 noundef %80)
  %82 = icmp ne i32 %81, 0
  br i1 %82, label %83, label %87

83:                                               ; preds = %76
  %84 = load ptr, ptr %4, align 8, !tbaa !3
  %85 = load i32, ptr %5, align 4, !tbaa !50
  %86 = load i32, ptr %7, align 4, !tbaa !50
  call void @Llb_Nonlin4AddPair(ptr noundef %84, i32 noundef %85, i32 noundef %86)
  br label %87

87:                                               ; preds = %83, %76, %58
  br label %88

88:                                               ; preds = %87
  %89 = load i32, ptr %7, align 4, !tbaa !50
  %90 = add nsw i32 %89, 1
  store i32 %90, ptr %7, align 4, !tbaa !50
  br label %52, !llvm.loop !105

91:                                               ; preds = %52
  %92 = load ptr, ptr %4, align 8, !tbaa !3
  %93 = getelementptr inbounds nuw %struct.Llb_Mgr_t_, ptr %92, i32 0, i32 7
  %94 = load i32, ptr %93, align 8, !tbaa !85
  %95 = load i32, ptr %8, align 4, !tbaa !50
  %96 = call i32 @Abc_MaxInt(i32 noundef %94, i32 noundef %95)
  %97 = load ptr, ptr %4, align 8, !tbaa !3
  %98 = getelementptr inbounds nuw %struct.Llb_Mgr_t_, ptr %97, i32 0, i32 7
  store i32 %96, ptr %98, align 8, !tbaa !85
  call void @llvm.lifetime.end.p0(i64 4, ptr %8) #8
  call void @llvm.lifetime.end.p0(i64 4, ptr %7) #8
  ret void
}