; Function Attrs: nounwind uwtable
define void @Llb_Nonlin4AddPartition(ptr noundef captures(none) %0, i32 noundef %1, ptr noundef %2) local_unnamed_addr #2 {
  %4 = tail call noalias dereferenceable_or_null(24) ptr @calloc(i64 noundef 1, i64 noundef 24) #17
  %5 = getelementptr inbounds nuw i8, ptr %0, i64 24
  %6 = load ptr, ptr %5, align 8, !tbaa !21
  %7 = sext i32 %1 to i64
  %8 = getelementptr inbounds ptr, ptr %6, i64 %7
  store ptr %4, ptr %8, align 8, !tbaa !25
  store i32 %1, ptr %4, align 8, !tbaa !22
  %9 = getelementptr inbounds nuw i8, ptr %4, i64 8
  store ptr %2, ptr %9, align 8, !tbaa !29
  tail call void @Cudd_Ref(ptr noundef %2) #14
  %10 = tail call noalias dereferenceable_or_null(16) ptr @malloc(i64 noundef 16) #16
  %11 = getelementptr inbounds nuw i8, ptr %10, i64 4
  store i32 0, ptr %11, align 4, !tbaa !45
  store i32 16, ptr %10, align 8, !tbaa !70
  %12 = tail call noalias dereferenceable_or_null(64) ptr @malloc(i64 noundef 64) #16
  %13 = getelementptr inbounds nuw i8, ptr %10, i64 8
  store ptr %12, ptr %13, align 8, !tbaa !19
  %14 = load ptr, ptr %5, align 8, !tbaa !21
  %15 = getelementptr inbounds ptr, ptr %14, i64 %7
  %16 = load ptr, ptr %15, align 8, !tbaa !25
  %17 = getelementptr inbounds nuw i8, ptr %16, i64 16
  store ptr %10, ptr %17, align 8, !tbaa !27
  %18 = load ptr, ptr %0, align 8, !tbaa !28
  %19 = getelementptr inbounds nuw i8, ptr %0, i64 56
  %20 = load ptr, ptr %19, align 8, !tbaa !57
  %21 = tail call ptr @Extra_SupportArray(ptr noundef %18, ptr noundef %2, ptr noundef %20) #14
  %22 = getelementptr inbounds nuw i8, ptr %0, i64 44
  %23 = load i32, ptr %22, align 4, !tbaa !51
  %24 = icmp sgt i32 %23, 0
  br i1 %24, label %.lr.ph, label %._crit_edge

.lr.ph:                                           ; preds = %3
  %25 = getelementptr inbounds nuw i8, ptr %0, i64 8
  br label %26

26:                                               ; preds = %.lr.ph, %39
  %27 = phi i32 [ %23, %.lr.ph ], [ %40, %39 ]
  %indvars.iv = phi i64 [ 0, %.lr.ph ], [ %indvars.iv.next, %39 ]
  %.032 = phi i32 [ 0, %.lr.ph ], [ %31, %39 ]
  %28 = load ptr, ptr %19, align 8, !tbaa !57
  %29 = getelementptr inbounds nuw i32, ptr %28, i64 %indvars.iv
  %30 = load i32, ptr %29, align 4, !tbaa !46
  %31 = add nsw i32 %30, %.032
  %.not = icmp eq i32 %30, 0
  br i1 %.not, label %39, label %32

32:                                               ; preds = %26
  %33 = load ptr, ptr %25, align 8, !tbaa !69
  %34 = getelementptr i8, ptr %33, i64 8
  %.val = load ptr, ptr %34, align 8, !tbaa !19
  %35 = getelementptr inbounds nuw i32, ptr %.val, i64 %indvars.iv
  %36 = load i32, ptr %35, align 4, !tbaa !46
  %.not30 = icmp eq i32 %36, 0
  br i1 %.not30, label %39, label %37

37:                                               ; preds = %32
  %38 = trunc nuw nsw i64 %indvars.iv to i32
  tail call void @Llb_Nonlin4AddPair(ptr noundef nonnull %0, i32 noundef %1, i32 noundef %38)
  %.pre = load i32, ptr %22, align 4, !tbaa !51
  br label %39

39:                                               ; preds = %26, %32, %37
  %40 = phi i32 [ %27, %26 ], [ %27, %32 ], [ %.pre, %37 ]
  %indvars.iv.next = add nuw nsw i64 %indvars.iv, 1
  %41 = sext i32 %40 to i64
  %42 = icmp slt i64 %indvars.iv.next, %41
  br i1 %42, label %26, label %._crit_edge, !llvm.loop !97

._crit_edge:                                      ; preds = %39, %3
  %.0.lcssa = phi i32 [ 0, %3 ], [ %31, %39 ]
  %43 = getelementptr inbounds nuw i8, ptr %0, i64 48
  %44 = load i32, ptr %43, align 8, !tbaa !76
  %45 = tail call noundef i32 @llvm.smax.i32(i32 %44, i32 %.0.lcssa)
  store i32 %45, ptr %43, align 8, !tbaa !76
  ret void
}